target datalayout = "e-m:e-p270:32:32-p271:32:32-p272:64:64-i64:64-i128:128-f80:128-n8:16:32:64-S128"
target triple = "x86_64-pc-linux-gnu"

%struct.QueryDesc = type { i32, ptr, ptr, ptr, ptr, ptr, ptr, ptr, i32, ptr, ptr, ptr, i8, ptr }
%struct.PlannedStmt = type { i32, i32, i64, i8, i8, i8, i8, i8, i8, i32, ptr, ptr, ptr, ptr, ptr, ptr, ptr, ptr, ptr, ptr, ptr, ptr, ptr, ptr, i32, i32 }

@ExecutorStart_hook = dso_local global ptr null, align 8

; Function Attrs: nounwind uwtable
define dso_local void @ExecutorStart(ptr noundef %0, i32 noundef %1) #0 {
  %3 = alloca ptr, align 8
  %4 = alloca i32, align 4
  store ptr %0, ptr %3, align 8
  store i32 %1, ptr %4, align 4
  %5 = load ptr, ptr %3, align 8
  %6 = getelementptr inbounds nuw %struct.QueryDesc, ptr %5, i32 0, i32 1
  %7 = load ptr, ptr %6, align 8
  %8 = getelementptr inbounds nuw %struct.PlannedStmt, ptr %7, i32 0, i32 2
  %9 = load i64, ptr %8, align 8
  call void @pgstat_report_query_id(i64 noundef %9, i1 noundef zeroext false)
  %10 = load ptr, ptr @ExecutorStart_hook, align 8
  %11 = icmp ne ptr %10, null
  br i1 %11, label %12, label %16

12:                                               ; preds = %2
  %13 = load ptr, ptr @ExecutorStart_hook, align 8
  %14 = load ptr, ptr %3, align 8
  %15 = load i32, ptr %4, align 4
  call void %13(ptr noundef %14, i32 noundef %15)
  br label %19

16:                                               ; preds = %2
  %17 = load ptr, ptr %3, align 8
  %18 = load i32, ptr %4, align 4
  call void @standard_ExecutorStart(ptr noundef %17, i32 noundef %18)
  br label %19

19:                                               ; preds = %16, %12
  ret void
}