; Function Attrs: nounwind uwtable
define dso_local void @ExecutorStart(ptr noundef %0, i32 noundef %1) local_unnamed_addr #0 {
  %3 = getelementptr inbounds nuw i8, ptr %0, i64 8
  %4 = load ptr, ptr %3, align 8
  %5 = getelementptr inbounds nuw i8, ptr %4, i64 8
  %6 = load i64, ptr %5, align 8
  tail call void @pgstat_report_query_id(i64 noundef %6, i1 noundef zeroext false) #9
  %7 = load ptr, ptr @ExecutorStart_hook, align 8
  %.not = icmp eq ptr %7, null
  br i1 %.not, label %9, label %8

8:                                                ; preds = %2
  tail call void %7(ptr noundef nonnull %0, i32 noundef %1) #9
  br label %10

9:                                                ; preds = %2
  tail call void @standard_ExecutorStart(ptr noundef nonnull %0, i32 noundef %1)
  br label %10

10:                                               ; preds = %9, %8
  ret void
}